; Function Attrs: mustprogress nofree norecurse nosync nounwind willreturn memory(read, inaccessiblemem: none) uwtable
define internal range(i32 0, 101) i32 @wsvqa_probe(ptr noundef readonly captures(none) %0) #0 {
  %2 = getelementptr inbounds nuw i8, ptr %0, i64 16
  %3 = load i32, ptr %2, align 8, !tbaa !4
  %4 = icmp slt i32 %3, 12
  br i1 %4, label %12, label %5

5:                                                ; preds = %1
  %6 = getelementptr inbounds nuw i8, ptr %0, i64 8
  %7 = load ptr, ptr %6, align 8, !tbaa !11
  %8 = load i32, ptr %7, align 1, !tbaa !12
  %.not = icmp eq i32 %8, 1297239878
  br i1 %.not, label %9, label %12

9:                                                ; preds = %5
  %10 = getelementptr inbounds nuw i8, ptr %7, i64 8
  %11 = load i32, ptr %10, align 1, !tbaa !12
  %.not3 = icmp eq i32 %11, 1095849559
  %spec.select = select i1 %.not3, i32 100, i32 0
  br label %12

12:                                               ; preds = %9, %5, %1
  %.0 = phi i32 [ 0, %1 ], [ 0, %5 ], [ %spec.select, %9 ]
  ret i32 %.0
}